target datalayout = "e-m:e-p270:32:32-p271:32:32-p272:64:64-i64:64-i128:128-f80:128-n8:16:32:64-S128"
target triple = "x86_64-pc-linux-gnu"

; Function Attrs: mustprogress nounwind uwtable
define hidden void @_ZN4lean7mpn_mulEPKjmS1_mPj(ptr noundef %0, i64 noundef %1, ptr noundef %2, i64 noundef %3, ptr noundef %4) #0 {
  %6 = alloca ptr, align 8
  %7 = alloca i64, align 8
  %8 = alloca ptr, align 8
  %9 = alloca i64, align 8
  %10 = alloca ptr, align 8
  %11 = alloca i64, align 8
  %12 = alloca i32, align 4
  %13 = alloca i32, align 4
  %14 = alloca i64, align 8
  %15 = alloca ptr, align 8
  %16 = alloca ptr, align 8
  %17 = alloca i64, align 8
  store ptr %0, ptr %6, align 8, !tbaa !3
  store i64 %1, ptr %7, align 8, !tbaa !8
  store ptr %2, ptr %8, align 8, !tbaa !3
  store i64 %3, ptr %9, align 8, !tbaa !8
  store ptr %4, ptr %10, align 8, !tbaa !3
  call void @llvm.lifetime.start.p0(i64 8, ptr %11) #12
  call void @llvm.lifetime.start.p0(i64 4, ptr %12) #12
  call void @llvm.lifetime.start.p0(i64 4, ptr %13) #12
  store i32 0, ptr %13, align 4, !tbaa !10
  br label %18

18:                                               ; preds = %29, %5
  %19 = load i32, ptr %13, align 4, !tbaa !10
  %20 = zext i32 %19 to i64
  %21 = load i64, ptr %7, align 8, !tbaa !8
  %22 = icmp ult i64 %20, %21
  br i1 %22, label %24, label %23

23:                                               ; preds = %18
  call void @llvm.lifetime.end.p0(i64 4, ptr %13) #12
  br label %32

24:                                               ; preds = %18
  %25 = load ptr, ptr %10, align 8, !tbaa !3
  %26 = load i32, ptr %13, align 4, !tbaa !10
  %27 = zext i32 %26 to i64
  %28 = getelementptr inbounds nuw i32, ptr %25, i64 %27
  store i32 0, ptr %28, align 4, !tbaa !10
  br label %29

29:                                               ; preds = %24
  %30 = load i32, ptr %13, align 4, !tbaa !10
  %31 = add i32 %30, 1
  store i32 %31, ptr %13, align 4, !tbaa !10
  br label %18, !llvm.loop !23

32:                                               ; preds = %23
  call void @llvm.lifetime.start.p0(i64 8, ptr %14) #12
  store i64 0, ptr %14, align 8, !tbaa !8
  br label %33

33:                                               ; preds = %101, %32
  %34 = load i64, ptr %14, align 8, !tbaa !8
  %35 = load i64, ptr %9, align 8, !tbaa !8
  %36 = icmp ult i64 %34, %35
  br i1 %36, label %38, label %37

37:                                               ; preds = %33
  call void @llvm.lifetime.end.p0(i64 8, ptr %14) #12
  br label %104

38:                                               ; preds = %33
  call void @llvm.lifetime.start.p0(i64 8, ptr %15) #12
  %39 = load ptr, ptr %8, align 8, !tbaa !3
  %40 = load i64, ptr %14, align 8, !tbaa !8
  %41 = getelementptr inbounds nuw i32, ptr %39, i64 %40
  store ptr %41, ptr %15, align 8, !tbaa !3
  %42 = load ptr, ptr %15, align 8, !tbaa !3
  %43 = load i32, ptr %42, align 4, !tbaa !10
  %44 = icmp eq i32 %43, 0
  br i1 %44, label %45, label %51

45:                                               ; preds = %38
  %46 = load ptr, ptr %10, align 8, !tbaa !3
  %47 = load i64, ptr %14, align 8, !tbaa !8
  %48 = load i64, ptr %7, align 8, !tbaa !8
  %49 = add i64 %47, %48
  %50 = getelementptr inbounds nuw i32, ptr %46, i64 %49
  store i32 0, ptr %50, align 4, !tbaa !10
  br label %100

51:                                               ; preds = %38
  store i32 0, ptr %12, align 4, !tbaa !10
  store i64 0, ptr %11, align 8, !tbaa !8
  br label %52

52:                                               ; preds = %90, %51
  %53 = load i64, ptr %11, align 8, !tbaa !8
  %54 = load i64, ptr %7, align 8, !tbaa !8
  %55 = icmp ult i64 %53, %54
  br i1 %55, label %56, label %93

56:                                               ; preds = %52
  call void @llvm.lifetime.start.p0(i64 8, ptr %16) #12
  %57 = load ptr, ptr %6, align 8, !tbaa !3
  %58 = load i64, ptr %11, align 8, !tbaa !8
  %59 = getelementptr inbounds nuw i32, ptr %57, i64 %58
  store ptr %59, ptr %16, align 8, !tbaa !3
  call void @llvm.lifetime.start.p0(i64 8, ptr %17) #12
  %60 = load ptr, ptr %16, align 8, !tbaa !3
  %61 = load i32, ptr %60, align 4, !tbaa !10
  %62 = zext i32 %61 to i64
  %63 = load ptr, ptr %15, align 8, !tbaa !3
  %64 = load i32, ptr %63, align 4, !tbaa !10
  %65 = zext i32 %64 to i64
  %66 = mul i64 %62, %65
  %67 = load ptr, ptr %10, align 8, !tbaa !3
  %68 = load i64, ptr %11, align 8, !tbaa !8
  %69 = load i64, ptr %14, align 8, !tbaa !8
  %70 = add i64 %68, %69
  %71 = getelementptr inbounds nuw i32, ptr %67, i64 %70
  %72 = load i32, ptr %71, align 4, !tbaa !10
  %73 = zext i32 %72 to i64
  %74 = add i64 %66, %73
  %75 = load i32, ptr %12, align 4, !tbaa !10
  %76 = zext i32 %75 to i64
  %77 = add i64 %74, %76
  store i64 %77, ptr %17, align 8, !tbaa !8
  %78 = load i64, ptr %17, align 8, !tbaa !8
  %79 = shl i64 %78, 32
  %80 = lshr i64 %79, 32
  %81 = trunc i64 %80 to i32
  %82 = load ptr, ptr %10, align 8, !tbaa !3
  %83 = load i64, ptr %11, align 8, !tbaa !8
  %84 = load i64, ptr %14, align 8, !tbaa !8
  %85 = add i64 %83, %84
  %86 = getelementptr inbounds nuw i32, ptr %82, i64 %85
  store i32 %81, ptr %86, align 4, !tbaa !10
  %87 = load i64, ptr %17, align 8, !tbaa !8
  %88 = lshr i64 %87, 32
  %89 = trunc i64 %88 to i32
  store i32 %89, ptr %12, align 4, !tbaa !10
  call void @llvm.lifetime.end.p0(i64 8, ptr %17) #12
  call void @llvm.lifetime.end.p0(i64 8, ptr %16) #12
  br label %90

90:                                               ; preds = %56
  %91 = load i64, ptr %11, align 8, !tbaa !8
  %92 = add i64 %91, 1
  store i64 %92, ptr %11, align 8, !tbaa !8
  br label %52, !llvm.loop !24

93:                                               ; preds = %52
  %94 = load i32, ptr %12, align 4, !tbaa !10
  %95 = load ptr, ptr %10, align 8, !tbaa !3
  %96 = load i64, ptr %14, align 8, !tbaa !8
  %97 = load i64, ptr %7, align 8, !tbaa !8
  %98 = add i64 %96, %97
  %99 = getelementptr inbounds nuw i32, ptr %95, i64 %98
  store i32 %94, ptr %99, align 4, !tbaa !10
  br label %100

100:                                              ; preds = %93, %45
  call void @llvm.lifetime.end.p0(i64 8, ptr %15) #12
  br label %101

101:                                              ; preds = %100
  %102 = load i64, ptr %14, align 8, !tbaa !8
  %103 = add i64 %102, 1
  store i64 %103, ptr %14, align 8, !tbaa !8
  br label %33, !llvm.loop !25

104:                                              ; preds = %37
  call void @llvm.lifetime.end.p0(i64 4, ptr %12) #12
  call void @llvm.lifetime.end.p0(i64 8, ptr %11) #12
  ret void
}