; Function Attrs: mustprogress nofree norecurse nosync nounwind memory(argmem: readwrite) uwtable
define hidden void @_ZN4lean7mpn_mulEPKjmS1_mPj(ptr noundef readonly captures(none) %0, i64 noundef %1, ptr noundef readonly captures(none) %2, i64 noundef %3, ptr noundef captures(none) %4) local_unnamed_addr #3 {
  %.not = icmp eq i64 %1, 0
  br i1 %.not, label %.preheader38, label %.lr.ph

.preheader38:                                     ; preds = %5
  %invariant.gep43 = getelementptr i32, ptr %4, i64 %1
  %.not50 = icmp eq i64 %3, 0
  br i1 %.not50, label %._crit_edge49, label %.lr.ph48.split

.preheader38.thread:                              ; preds = %.lr.ph
  %invariant.gep4355 = getelementptr i32, ptr %4, i64 %1
  %.not5056 = icmp eq i64 %3, 0
  br i1 %.not5056, label %._crit_edge49, label %.lr.ph48.split.us

.lr.ph48.split.us:                                ; preds = %.preheader38.thread, %23
  %.03547.us = phi i64 [ %24, %23 ], [ 0, %.preheader38.thread ]
  %6 = getelementptr inbounds nuw i32, ptr %2, i64 %.03547.us
  %7 = load i32, ptr %6, align 4, !tbaa !3
  %8 = icmp eq i32 %7, 0
  br i1 %8, label %23, label %.preheader.us

9:                                                ; preds = %.preheader.us, %9
  %.041.us = phi i64 [ 0, %.preheader.us ], [ %22, %9 ]
  %.03340.us = phi i64 [ 0, %.preheader.us ], [ %21, %9 ]
  %10 = getelementptr inbounds nuw i32, ptr %0, i64 %.041.us
  %11 = load i32, ptr %10, align 4, !tbaa !3
  %12 = zext i32 %11 to i64
  %13 = load i32, ptr %6, align 4, !tbaa !3
  %14 = zext i32 %13 to i64
  %15 = mul nuw i64 %14, %12
  %gep.us = getelementptr i32, ptr %invariant.gep.us, i64 %.041.us
  %16 = load i32, ptr %gep.us, align 4, !tbaa !3
  %17 = zext i32 %16 to i64
  %18 = add nuw nsw i64 %.03340.us, %17
  %19 = add nuw i64 %18, %15
  %20 = trunc i64 %19 to i32
  store i32 %20, ptr %gep.us, align 4, !tbaa !3
  %21 = lshr i64 %19, 32
  %22 = add nuw nsw i64 %.041.us, 1
  %exitcond.not = icmp eq i64 %22, %1
  br i1 %exitcond.not, label %._crit_edge.us, label %9, !llvm.loop !14

23:                                               ; preds = %.lr.ph48.split.us, %._crit_edge.us
  %.sink = phi i32 [ %25, %._crit_edge.us ], [ 0, %.lr.ph48.split.us ]
  %gep46.us = getelementptr i32, ptr %invariant.gep4355, i64 %.03547.us
  store i32 %.sink, ptr %gep46.us, align 4, !tbaa !3
  %24 = add nuw i64 %.03547.us, 1
  %exitcond53.not = icmp eq i64 %24, %3
  br i1 %exitcond53.not, label %._crit_edge49, label %.lr.ph48.split.us, !llvm.loop !15

.preheader.us:                                    ; preds = %.lr.ph48.split.us
  %invariant.gep.us = getelementptr i32, ptr %4, i64 %.03547.us
  br label %9

._crit_edge.us:                                   ; preds = %9
  %25 = trunc nuw i64 %21 to i32
  br label %23

.lr.ph:                                           ; preds = %5, %.lr.ph
  %26 = phi i64 [ %29, %.lr.ph ], [ 0, %5 ]
  %.03439 = phi i32 [ %28, %.lr.ph ], [ 0, %5 ]
  %27 = getelementptr inbounds nuw i32, ptr %4, i64 %26
  store i32 0, ptr %27, align 4, !tbaa !3
  %28 = add i32 %.03439, 1
  %29 = zext i32 %28 to i64
  %30 = icmp ugt i64 %1, %29
  br i1 %30, label %.lr.ph, label %.preheader38.thread, !llvm.loop !16

._crit_edge49:                                    ; preds = %23, %.lr.ph48.split, %.preheader38.thread, %.preheader38
  ret void

.lr.ph48.split:                                   ; preds = %.preheader38, %.lr.ph48.split
  %.03547 = phi i64 [ %31, %.lr.ph48.split ], [ 0, %.preheader38 ]
  %gep46 = getelementptr i32, ptr %invariant.gep43, i64 %.03547
  store i32 0, ptr %gep46, align 4, !tbaa !3
  %31 = add nuw i64 %.03547, 1
  %exitcond54.not = icmp eq i64 %31, %3
  br i1 %exitcond54.not, label %._crit_edge49, label %.lr.ph48.split, !llvm.loop !15
}